#include <math.h>
#include <stdio.h>
#include <stdlib.h>
#include <string.h>



int main()
{
	int n,i,j,k,m=0;
	char a[256],b[256],c[256];

	gets(a);
	gets(b);
	gets(c);

	n=strlen(a);
	k=strlen(b);

	i=strstr(a,b)-a;

	if(i>=0&&i<=n-k)
	{
		for(j=0;j<i;j++)
		{
			printf("%c",a[j]);
		}
		for(j=0;j<k;j++)
		{
			printf("%c",c[j]);
		}
		for(j=i+k;j<n;j++)
		{
			printf("%c",a[j]);
		}
	}
	else
	{
		for(i=0;i<n;i++)
		{
			printf("%c",a[i]);
		}
	}
	printf("\n");
	return 0;
}
